; Function Attrs: nounwind uwtable
define noalias nonnull ptr @l___private_Lean_Meta_SynthInstance_0__Lean_Meta_applyCachedAbstractResult_x3f___lambda__1(ptr noundef %0, ptr noundef readnone captures(none) %1, ptr noundef readnone captures(none) %2, ptr noundef readnone captures(none) %3, ptr noundef readnone captures(none) %4, ptr noundef readnone captures(none) %5, ptr noundef %6) local_unnamed_addr #1 {
  tail call void @lean_inc_heartbeat() #7
  %8 = tail call noalias ptr @mi_malloc_small(i64 noundef 16) #7
  %9 = icmp eq ptr %8, null
  br i1 %9, label %10, label %lean_alloc_ctor.exit

10:                                               ; preds = %7
  tail call void @lean_internal_panic_out_of_memory() #8
  unreachable

lean_alloc_ctor.exit:                             ; preds = %7
  %11 = getelementptr inbounds nuw i8, ptr %8, i64 4
  store i32 1, ptr %8, align 4, !tbaa !4
  store i32 16842768, ptr %11, align 4
  %12 = getelementptr inbounds nuw i8, ptr %8, i64 8
  store ptr %0, ptr %12, align 8, !tbaa !9
  tail call void @lean_inc_heartbeat() #7
  %13 = tail call noalias ptr @mi_malloc_small(i64 noundef 24) #7
  %14 = icmp eq ptr %13, null
  br i1 %14, label %15, label %lean_alloc_ctor.exit7

15:                                               ; preds = %lean_alloc_ctor.exit
  tail call void @lean_internal_panic_out_of_memory() #8
  unreachable

lean_alloc_ctor.exit7:                            ; preds = %lean_alloc_ctor.exit
  %16 = getelementptr inbounds nuw i8, ptr %13, i64 4
  store i32 1, ptr %13, align 4, !tbaa !4
  store i32 131096, ptr %16, align 4
  %17 = getelementptr inbounds nuw i8, ptr %13, i64 8
  store ptr %8, ptr %17, align 8, !tbaa !9
  %18 = getelementptr inbounds nuw i8, ptr %13, i64 16
  store ptr %6, ptr %18, align 8, !tbaa !9
  ret ptr %13
}